target datalayout = "e-m:e-p270:32:32-p271:32:32-p272:64:64-i64:64-i128:128-f80:128-n8:16:32:64-S128"
target triple = "x86_64-pc-linux-gnu"

%"class.llvm::StringRef" = type { ptr, i64 }
%"struct.llvm::MachO::fat_arch" = type { i32, i32, i32, i32, i32 }
%"struct.llvm::MachO::fat_arch_64" = type { i32, i32, i64, i64, i32, i32 }
%"class.llvm::object::MachOUniversalBinary::ObjectForArch" = type { ptr, i32, %"struct.llvm::MachO::fat_arch", %"struct.llvm::MachO::fat_arch_64" }
%"class.llvm::object::MachOUniversalBinary" = type { %"class.llvm::object::Binary", i32, i32 }
%"class.llvm::object::Binary" = type { ptr, i32, %"class.llvm::MemoryBufferRef" }
%"class.llvm::MemoryBufferRef" = type { %"class.llvm::StringRef", %"class.llvm::StringRef" }
%"class.llvm::Expected.5" = type { %union.anon.6, i8, [7 x i8] }
%union.anon.6 = type { %"struct.llvm::AlignedCharArrayUnion.7" }
%"struct.llvm::AlignedCharArrayUnion.7" = type { [8 x i8] }

@.str.2 = private unnamed_addr constant [84 x i8] c"MachOUniversalBinary::ObjectForArch::getAsArchive() called when Parent is a nullptr\00", align 1

; Function Attrs: mustprogress nounwind uwtable
define linkonce_odr hidden void @_ZN4llvm9StringRefC2EPKcm(ptr noundef nonnull align 8 dereferenceable(16) %0, ptr noundef %1, i64 noundef %2) unnamed_addr #0 comdat align 2 {
  %4 = alloca ptr, align 8
  %5 = alloca ptr, align 8
  %6 = alloca i64, align 8
  store ptr %0, ptr %4, align 8
  store ptr %1, ptr %5, align 8
  store i64 %2, ptr %6, align 8
  %7 = load ptr, ptr %4, align 8
  %8 = getelementptr inbounds nuw %"class.llvm::StringRef", ptr %7, i32 0, i32 0
  %9 = load ptr, ptr %5, align 8
  store ptr %9, ptr %8, align 8
  %10 = getelementptr inbounds nuw %"class.llvm::StringRef", ptr %7, i32 0, i32 1
  %11 = load i64, ptr %6, align 8
  store i64 %11, ptr %10, align 8
  ret void
}

; Function Attrs: mustprogress nounwind uwtable
define linkonce_odr noundef nonnull align 8 dereferenceable(8) ptr @_ZSt3minImERKT_S2_S2_(ptr noundef nonnull align 8 dereferenceable(8) %0, ptr noundef nonnull align 8 dereferenceable(8) %1) #0 comdat {
  %3 = alloca ptr, align 8
  %4 = alloca ptr, align 8
  %5 = alloca ptr, align 8
  store ptr %0, ptr %4, align 8
  store ptr %1, ptr %5, align 8
  %6 = load ptr, ptr %5, align 8
  %7 = load i64, ptr %6, align 8
  %8 = load ptr, ptr %4, align 8
  %9 = load i64, ptr %8, align 8
  %10 = icmp ult i64 %7, %9
  br i1 %10, label %11, label %13

11:                                               ; preds = %2
  %12 = load ptr, ptr %5, align 8
  store ptr %12, ptr %3, align 8
  br label %15

13:                                               ; preds = %2
  %14 = load ptr, ptr %4, align 8
  store ptr %14, ptr %3, align 8
  br label %15

15:                                               ; preds = %13, %11
  %16 = load ptr, ptr %3, align 8
  ret ptr %16
}

; Function Attrs: mustprogress nounwind uwtable
define linkonce_odr hidden void @_ZN4llvm15MemoryBufferRefC2ENS_9StringRefES1_(ptr noundef nonnull align 8 dereferenceable(32) %0, ptr %1, i64 %2, ptr %3, i64 %4) unnamed_addr #0 comdat align 2 {
  %6 = alloca %"class.llvm::StringRef", align 8
  %7 = alloca %"class.llvm::StringRef", align 8
  %8 = alloca ptr, align 8
  %9 = getelementptr inbounds nuw { ptr, i64 }, ptr %6, i32 0, i32 0
  store ptr %1, ptr %9, align 8
  %10 = getelementptr inbounds nuw { ptr, i64 }, ptr %6, i32 0, i32 1
  store i64 %2, ptr %10, align 8
  %11 = getelementptr inbounds nuw { ptr, i64 }, ptr %7, i32 0, i32 0
  store ptr %3, ptr %11, align 8
  %12 = getelementptr inbounds nuw { ptr, i64 }, ptr %7, i32 0, i32 1
  store i64 %4, ptr %12, align 8
  store ptr %0, ptr %8, align 8
  %13 = load ptr, ptr %8, align 8
  %14 = getelementptr inbounds nuw %"class.llvm::MemoryBufferRef", ptr %13, i32 0, i32 0
  call void @llvm.memcpy.p0.p0.i64(ptr align 8 %14, ptr align 8 %6, i64 16, i1 false)
  %15 = getelementptr inbounds nuw %"class.llvm::MemoryBufferRef", ptr %13, i32 0, i32 1
  call void @llvm.memcpy.p0.p0.i64(ptr align 8 %15, ptr align 8 %7, i64 16, i1 false)
  ret void
}

; Function Attrs: mustprogress nounwind uwtable
define linkonce_odr hidden { ptr, i64 } @_ZNK4llvm9StringRef6substrEmm(ptr noundef nonnull align 8 dereferenceable(16) %0, i64 noundef %1, i64 noundef %2) #0 comdat align 2 {
  %4 = alloca %"class.llvm::StringRef", align 8
  %5 = alloca ptr, align 8
  %6 = alloca i64, align 8
  %7 = alloca i64, align 8
  %8 = alloca i64, align 8
  store ptr %0, ptr %5, align 8
  store i64 %1, ptr %6, align 8
  store i64 %2, ptr %7, align 8
  %9 = load ptr, ptr %5, align 8
  %10 = getelementptr inbounds nuw %"class.llvm::StringRef", ptr %9, i32 0, i32 1
  %11 = call noundef nonnull align 8 dereferenceable(8) ptr @_ZSt3minImERKT_S2_S2_(ptr noundef nonnull align 8 dereferenceable(8) %6, ptr noundef nonnull align 8 dereferenceable(8) %10)
  %12 = load i64, ptr %11, align 8
  store i64 %12, ptr %6, align 8
  %13 = getelementptr inbounds nuw %"class.llvm::StringRef", ptr %9, i32 0, i32 0
  %14 = load ptr, ptr %13, align 8
  %15 = load i64, ptr %6, align 8
  %16 = getelementptr inbounds i8, ptr %14, i64 %15
  %17 = getelementptr inbounds nuw %"class.llvm::StringRef", ptr %9, i32 0, i32 1
  %18 = load i64, ptr %17, align 8
  %19 = load i64, ptr %6, align 8
  %20 = sub i64 %18, %19
  store i64 %20, ptr %8, align 8
  %21 = call noundef nonnull align 8 dereferenceable(8) ptr @_ZSt3minImERKT_S2_S2_(ptr noundef nonnull align 8 dereferenceable(8) %7, ptr noundef nonnull align 8 dereferenceable(8) %8)
  %22 = load i64, ptr %21, align 8
  call void @_ZN4llvm9StringRefC2EPKcm(ptr noundef nonnull align 8 dereferenceable(16) %4, ptr noundef %16, i64 noundef %22)
  %23 = load { ptr, i64 }, ptr %4, align 8
  ret { ptr, i64 } %23
}

; Function Attrs: mustprogress nounwind uwtable
define linkonce_odr hidden noundef i32 @_ZNK4llvm6object20MachOUniversalBinary8getMagicEv(ptr noundef nonnull align 8 dereferenceable(56) %0) #0 comdat align 2 {
  %2 = alloca ptr, align 8
  store ptr %0, ptr %2, align 8
  %3 = load ptr, ptr %2, align 8
  %4 = getelementptr inbounds nuw %"class.llvm::object::MachOUniversalBinary", ptr %3, i32 0, i32 1
  %5 = load i32, ptr %4, align 8
  ret i32 %5
}

; Function Attrs: mustprogress nounwind uwtable
define linkonce_odr hidden void @_ZN4llvm9StringRefC2Ev(ptr noundef nonnull align 8 dereferenceable(16) %0) unnamed_addr #0 comdat align 2 {
  %2 = alloca ptr, align 8
  store ptr %0, ptr %2, align 8
  %3 = load ptr, ptr %2, align 8
  %4 = getelementptr inbounds nuw %"class.llvm::StringRef", ptr %3, i32 0, i32 0
  store ptr null, ptr %4, align 8
  %5 = getelementptr inbounds nuw %"class.llvm::StringRef", ptr %3, i32 0, i32 1
  store i64 0, ptr %5, align 8
  ret void
}

; Function Attrs: mustprogress nounwind uwtable
define dso_local void @_ZNK4llvm6object20MachOUniversalBinary13ObjectForArch12getAsArchiveEv(ptr dead_on_unwind noalias writable sret(%"class.llvm::Expected.5") align 8 %0, ptr noundef nonnull align 8 dereferenceable(64) %1) #0 align 2 {
  %3 = alloca ptr, align 8
  %4 = alloca ptr, align 8
  %5 = alloca %"class.llvm::StringRef", align 8
  %6 = alloca %"class.llvm::StringRef", align 8
  %7 = alloca %"class.llvm::StringRef", align 8
  %8 = alloca %"class.llvm::StringRef", align 8
  %9 = alloca %"class.llvm::StringRef", align 8
  %10 = alloca %"class.llvm::MemoryBufferRef", align 8
  %11 = alloca %"class.llvm::StringRef", align 8
  %12 = alloca %"class.llvm::StringRef", align 8
  %13 = alloca %"class.llvm::MemoryBufferRef", align 8
  store ptr %0, ptr %3, align 8
  store ptr %1, ptr %4, align 8
  %14 = load ptr, ptr %4, align 8
  %15 = getelementptr inbounds nuw %"class.llvm::object::MachOUniversalBinary::ObjectForArch", ptr %14, i32 0, i32 0
  %16 = load ptr, ptr %15, align 8
  %17 = icmp ne ptr %16, null
  br i1 %17, label %19, label %18

18:                                               ; preds = %2
  call void @_ZN4llvm18report_fatal_errorEPKcb(ptr noundef @.str.2, i1 noundef zeroext true) #10
  unreachable

19:                                               ; preds = %2
  %20 = getelementptr inbounds nuw %"class.llvm::object::MachOUniversalBinary::ObjectForArch", ptr %14, i32 0, i32 0
  %21 = load ptr, ptr %20, align 8
  %22 = call { ptr, i64 } @_ZNK4llvm6object6Binary7getDataEv(ptr noundef nonnull align 8 dereferenceable(48) %21)
  %23 = getelementptr inbounds nuw { ptr, i64 }, ptr %5, i32 0, i32 0
  %24 = extractvalue { ptr, i64 } %22, 0
  store ptr %24, ptr %23, align 8
  %25 = getelementptr inbounds nuw { ptr, i64 }, ptr %5, i32 0, i32 1
  %26 = extractvalue { ptr, i64 } %22, 1
  store i64 %26, ptr %25, align 8
  call void @_ZN4llvm9StringRefC2Ev(ptr noundef nonnull align 8 dereferenceable(16) %6) #11
  %27 = getelementptr inbounds nuw %"class.llvm::object::MachOUniversalBinary::ObjectForArch", ptr %14, i32 0, i32 0
  %28 = load ptr, ptr %27, align 8
  %29 = call noundef i32 @_ZNK4llvm6object20MachOUniversalBinary8getMagicEv(ptr noundef nonnull align 8 dereferenceable(56) %28)
  %30 = icmp eq i32 %29, -889275714
  br i1 %30, label %31, label %45

31:                                               ; preds = %19
  %32 = getelementptr inbounds nuw %"class.llvm::object::MachOUniversalBinary::ObjectForArch", ptr %14, i32 0, i32 2
  %33 = getelementptr inbounds nuw %"struct.llvm::MachO::fat_arch", ptr %32, i32 0, i32 2
  %34 = load i32, ptr %33, align 4
  %35 = zext i32 %34 to i64
  %36 = getelementptr inbounds nuw %"class.llvm::object::MachOUniversalBinary::ObjectForArch", ptr %14, i32 0, i32 2
  %37 = getelementptr inbounds nuw %"struct.llvm::MachO::fat_arch", ptr %36, i32 0, i32 3
  %38 = load i32, ptr %37, align 4
  %39 = zext i32 %38 to i64
  %40 = call { ptr, i64 } @_ZNK4llvm9StringRef6substrEmm(ptr noundef nonnull align 8 dereferenceable(16) %5, i64 noundef %35, i64 noundef %39)
  %41 = getelementptr inbounds nuw { ptr, i64 }, ptr %7, i32 0, i32 0
  %42 = extractvalue { ptr, i64 } %40, 0
  store ptr %42, ptr %41, align 8
  %43 = getelementptr inbounds nuw { ptr, i64 }, ptr %7, i32 0, i32 1
  %44 = extractvalue { ptr, i64 } %40, 1
  store i64 %44, ptr %43, align 8
  call void @llvm.memcpy.p0.p0.i64(ptr align 8 %6, ptr align 8 %7, i64 16, i1 false)
  br label %57

45:                                               ; preds = %19
  %46 = getelementptr inbounds nuw %"class.llvm::object::MachOUniversalBinary::ObjectForArch", ptr %14, i32 0, i32 3
  %47 = getelementptr inbounds nuw %"struct.llvm::MachO::fat_arch_64", ptr %46, i32 0, i32 2
  %48 = load i64, ptr %47, align 8
  %49 = getelementptr inbounds nuw %"class.llvm::object::MachOUniversalBinary::ObjectForArch", ptr %14, i32 0, i32 3
  %50 = getelementptr inbounds nuw %"struct.llvm::MachO::fat_arch_64", ptr %49, i32 0, i32 3
  %51 = load i64, ptr %50, align 8
  %52 = call { ptr, i64 } @_ZNK4llvm9StringRef6substrEmm(ptr noundef nonnull align 8 dereferenceable(16) %5, i64 noundef %48, i64 noundef %51)
  %53 = getelementptr inbounds nuw { ptr, i64 }, ptr %8, i32 0, i32 0
  %54 = extractvalue { ptr, i64 } %52, 0
  store ptr %54, ptr %53, align 8
  %55 = getelementptr inbounds nuw { ptr, i64 }, ptr %8, i32 0, i32 1
  %56 = extractvalue { ptr, i64 } %52, 1
  store i64 %56, ptr %55, align 8
  call void @llvm.memcpy.p0.p0.i64(ptr align 8 %6, ptr align 8 %8, i64 16, i1 false)
  br label %57

57:                                               ; preds = %45, %31
  %58 = getelementptr inbounds nuw %"class.llvm::object::MachOUniversalBinary::ObjectForArch", ptr %14, i32 0, i32 0
  %59 = load ptr, ptr %58, align 8
  %60 = call { ptr, i64 } @_ZNK4llvm6object6Binary11getFileNameEv(ptr noundef nonnull align 8 dereferenceable(48) %59)
  %61 = getelementptr inbounds nuw { ptr, i64 }, ptr %9, i32 0, i32 0
  %62 = extractvalue { ptr, i64 } %60, 0
  store ptr %62, ptr %61, align 8
  %63 = getelementptr inbounds nuw { ptr, i64 }, ptr %9, i32 0, i32 1
  %64 = extractvalue { ptr, i64 } %60, 1
  store i64 %64, ptr %63, align 8
  call void @llvm.memcpy.p0.p0.i64(ptr align 8 %11, ptr align 8 %6, i64 16, i1 false)
  call void @llvm.memcpy.p0.p0.i64(ptr align 8 %12, ptr align 8 %9, i64 16, i1 false)
  %65 = getelementptr inbounds nuw { ptr, i64 }, ptr %11, i32 0, i32 0
  %66 = load ptr, ptr %65, align 8
  %67 = getelementptr inbounds nuw { ptr, i64 }, ptr %11, i32 0, i32 1
  %68 = load i64, ptr %67, align 8
  %69 = getelementptr inbounds nuw { ptr, i64 }, ptr %12, i32 0, i32 0
  %70 = load ptr, ptr %69, align 8
  %71 = getelementptr inbounds nuw { ptr, i64 }, ptr %12, i32 0, i32 1
  %72 = load i64, ptr %71, align 8
  call void @_ZN4llvm15MemoryBufferRefC2ENS_9StringRefES1_(ptr noundef nonnull align 8 dereferenceable(32) %10, ptr %66, i64 %68, ptr %70, i64 %72)
  call void @llvm.memcpy.p0.p0.i64(ptr align 8 %13, ptr align 8 %10, i64 32, i1 false)
  call void @_ZN4llvm6object7Archive6createENS_15MemoryBufferRefE(ptr dead_on_unwind writable sret(%"class.llvm::Expected.5") align 8 %0, ptr noundef byval(%"class.llvm::MemoryBufferRef") align 8 %13)
  ret void
}