; Function Attrs: mustprogress nounwind uwtable
define dso_local void @_ZNK4llvm6object20MachOUniversalBinary13ObjectForArch12getAsArchiveEv(ptr dead_on_unwind noalias writable sret(%"class.llvm::Expected.5") align 8 %0, ptr nocapture noundef nonnull readonly align 8 dereferenceable(64) %1) local_unnamed_addr #0 align 2 {
  %3 = alloca %"class.llvm::MemoryBufferRef", align 8
  %4 = load ptr, ptr %1, align 8
  %.not = icmp eq ptr %4, null
  br i1 %.not, label %5, label %6

5:                                                ; preds = %2
  tail call void @_ZN4llvm18report_fatal_errorEPKcb(ptr noundef nonnull @.str.2, i1 noundef zeroext true) #15
  unreachable

6:                                                ; preds = %2
  %7 = tail call { ptr, i64 } @_ZNK4llvm6object6Binary7getDataEv(ptr noundef nonnull align 8 dereferenceable(48) %4) #14
  %8 = extractvalue { ptr, i64 } %7, 1
  %9 = load ptr, ptr %1, align 8
  %10 = getelementptr inbounds nuw i8, ptr %9, i64 48
  %11 = load i32, ptr %10, align 8
  %12 = icmp eq i32 %11, -889275714
  %13 = getelementptr inbounds i8, ptr %1, i64 40
  %14 = load i64, ptr %13, align 8
  %15 = getelementptr inbounds i8, ptr %1, i64 48
  %16 = load i64, ptr %15, align 8
  %17 = getelementptr inbounds i8, ptr %1, i64 20
  %18 = load i32, ptr %17, align 4
  %19 = zext i32 %18 to i64
  %20 = getelementptr inbounds i8, ptr %1, i64 24
  %21 = load i32, ptr %20, align 8
  %22 = zext i32 %21 to i64
  %.sink = select i1 %12, i64 %19, i64 %14
  %.sink19 = select i1 %12, i64 %22, i64 %16
  %.sroa.speculated5.i9 = tail call i64 @llvm.umin.i64(i64 %8, i64 %.sink)
  %23 = sub i64 %8, %.sroa.speculated5.i9
  %.sroa.speculated.i10 = tail call i64 @llvm.umin.i64(i64 %23, i64 %.sink19)
  %24 = extractvalue { ptr, i64 } %7, 0
  %.sroa.013.0 = getelementptr inbounds i8, ptr %24, i64 %.sroa.speculated5.i9
  %25 = tail call { ptr, i64 } @_ZNK4llvm6object6Binary11getFileNameEv(ptr noundef nonnull align 8 dereferenceable(48) %9) #14
  %26 = extractvalue { ptr, i64 } %25, 0
  %27 = extractvalue { ptr, i64 } %25, 1
  store ptr %.sroa.013.0, ptr %3, align 8
  %.sroa.2.0..sroa_idx = getelementptr inbounds i8, ptr %3, i64 8
  store i64 %.sroa.speculated.i10, ptr %.sroa.2.0..sroa_idx, align 8
  %.sroa.3.0..sroa_idx = getelementptr inbounds i8, ptr %3, i64 16
  store ptr %26, ptr %.sroa.3.0..sroa_idx, align 8
  %.sroa.4.0..sroa_idx = getelementptr inbounds i8, ptr %3, i64 24
  store i64 %27, ptr %.sroa.4.0..sroa_idx, align 8
  tail call void @_ZN4llvm6object7Archive6createENS_15MemoryBufferRefE(ptr dead_on_unwind writable sret(%"class.llvm::Expected.5") align 8 %0, ptr noundef nonnull byval(%"class.llvm::MemoryBufferRef") align 8 %3) #14
  ret void
}